; Function Attrs: mustprogress uwtable
define void @_ZN9RBDataMap4initEP15UResourceBundleR10UErrorCode(ptr nocapture noundef nonnull readonly align 8 dereferenceable(16) %this, ptr noundef %data, ptr noundef nonnull align 4 dereferenceable(4) %status) local_unnamed_addr #4 align 2 personality ptr @__gxx_personality_v0 {
entry:
  %ref.tmp = alloca %"class.icu_75::UnicodeString", align 8
  %fData = getelementptr inbounds i8, ptr %this, i64 8
  %0 = load ptr, ptr %fData, align 8
  %1 = load ptr, ptr %0, align 8
  tail call void @uhash_removeAll_75(ptr noundef %1)
  %call17 = tail call i32 @ures_getSize_75(ptr noundef %data)
  %cmp18 = icmp sgt i32 %call17, 0
  br i1 %cmp18, label %for.body, label %for.end

for.body:                                         ; preds = %entry, %invoke.cont7
  %i.020 = phi i32 [ %inc, %invoke.cont7 ], [ 0, %entry ]
  %t.019 = phi ptr [ %call2, %invoke.cont7 ], [ null, %entry ]
  %call2 = call ptr @ures_getByIndex_75(ptr noundef %data, i32 noundef %i.020, ptr noundef %t.019, ptr noundef nonnull %status)
  %2 = load ptr, ptr %fData, align 8
  %call4 = call ptr @ures_getKey_75(ptr noundef %call2)
  call void @_ZN6icu_7513UnicodeStringC1EPKciNS0_10EInvariantE(ptr noundef nonnull align 8 dereferenceable(64) %ref.tmp, ptr noundef %call4, i32 noundef -1, i32 noundef 0)
  %call5 = call noundef ptr @_ZN6icu_757UMemorynwEm(i64 noundef 24) #15
  %new.isnull = icmp eq ptr %call5, null
  br i1 %new.isnull, label %new.cont, label %new.notnull

new.notnull:                                      ; preds = %for.body
  invoke void @_ZN6icu_7514ResourceBundleC1EP15UResourceBundleR10UErrorCode(ptr noundef nonnull align 8 dereferenceable(24) %call5, ptr noundef %call2, ptr noundef nonnull align 4 dereferenceable(4) %status)
          to label %new.cont unwind label %lpad

new.cont:                                         ; preds = %new.notnull, %for.body
  %3 = load ptr, ptr %2, align 8
  %call.i = call noundef ptr @_ZN6icu_757UMemorynwEm(i64 noundef 64) #15
  %new.isnull.i = icmp eq ptr %call.i, null
  br i1 %new.isnull.i, label %new.cont.i, label %new.notnull.i

new.notnull.i:                                    ; preds = %new.cont
  invoke void @_ZN6icu_7513UnicodeStringC1ERKS0_(ptr noundef nonnull align 8 dereferenceable(64) %call.i, ptr noundef nonnull align 8 dereferenceable(64) %ref.tmp)
          to label %new.cont.i unwind label %lpad.i

new.cont.i:                                       ; preds = %new.notnull.i, %new.cont
  %call2.i10 = invoke noundef ptr @uhash_put_75(ptr noundef %3, ptr noundef %call.i, ptr noundef %call5, ptr noundef nonnull %status)
          to label %invoke.cont7 unwind label %lpad6

lpad.i:                                           ; preds = %new.notnull.i
  %4 = landingpad { ptr, i32 }
          cleanup
  call void @_ZN6icu_757UMemorydlEPv(ptr noundef nonnull %call.i) #15
  br label %ehcleanup

invoke.cont7:                                     ; preds = %new.cont.i
  call void @_ZN6icu_7513UnicodeStringD1Ev(ptr noundef nonnull align 8 dereferenceable(64) %ref.tmp) #15
  %inc = add nuw nsw i32 %i.020, 1
  %call = call i32 @ures_getSize_75(ptr noundef %data)
  %cmp = icmp slt i32 %inc, %call
  br i1 %cmp, label %for.body, label %for.end, !llvm.loop !5

lpad:                                             ; preds = %new.notnull
  %5 = landingpad { ptr, i32 }
          cleanup
  call void @_ZN6icu_757UMemorydlEPv(ptr noundef nonnull %call5) #15
  br label %ehcleanup

lpad6:                                            ; preds = %new.cont.i
  %6 = landingpad { ptr, i32 }
          cleanup
  br label %ehcleanup

ehcleanup:                                        ; preds = %lpad6, %lpad.i, %lpad
  %.pn = phi { ptr, i32 } [ %5, %lpad ], [ %6, %lpad6 ], [ %4, %lpad.i ]
  call void @_ZN6icu_7513UnicodeStringD1Ev(ptr noundef nonnull align 8 dereferenceable(64) %ref.tmp) #15
  resume { ptr, i32 } %.pn

for.end:                                          ; preds = %invoke.cont7, %entry
  %t.0.lcssa = phi ptr [ null, %entry ], [ %call2, %invoke.cont7 ]
  call void @ures_close_75(ptr noundef %t.0.lcssa)
  ret void
}